; Function Attrs: mustprogress uwtable
define hidden void @_ZN4cvc56parser14Smt2TermParser16tokenStrToSymbolB5cxx11ENS0_5TokenE(ptr noalias nonnull sret(%"class.std::__cxx11::basic_string") align 8 %agg.result, ptr nocapture noundef nonnull readonly align 8 dereferenceable(24) %this, i32 noundef %tok) local_unnamed_addr #5 align 2 personality ptr @__gxx_personality_v0 {
entry:
  %ref.tmp = alloca %"class.std::__cxx11::basic_string", align 8
  %ref.tmp23 = alloca %"class.std::allocator", align 1
  %ref.tmp29 = alloca %"class.std::__cxx11::basic_string", align 8
  %ref.tmp30 = alloca %"class.std::allocator", align 1
  tail call void @_ZNSt7__cxx1112basic_stringIcSt11char_traitsIcESaIcEEC1Ev(ptr noundef nonnull align 8 dereferenceable(32) %agg.result) #19
  %d_lex28 = getelementptr inbounds i8, ptr %this, i64 8
  %0 = load ptr, ptr %d_lex28, align 8
  switch i32 %tok, label %sw.default [
    i32 79, label %sw.bb
    i32 69, label %sw.bb4
    i32 82, label %sw.bb21
  ]

sw.bb:                                            ; preds = %entry
  %vtable = load ptr, ptr %0, align 8
  %vfn = getelementptr inbounds i8, ptr %vtable, i64 24
  %1 = load ptr, ptr %vfn, align 8
  %call = invoke noundef ptr %1(ptr noundef nonnull align 8 dereferenceable(33178) %0)
          to label %invoke.cont unwind label %lpad

invoke.cont:                                      ; preds = %sw.bb
  %call3 = invoke noundef nonnull align 8 dereferenceable(32) ptr @_ZNSt7__cxx1112basic_stringIcSt11char_traitsIcESaIcEEaSEPKc(ptr noundef nonnull align 8 dereferenceable(32) %agg.result, ptr noundef %call)
          to label %nrvo.skipdtor unwind label %lpad

lpad:                                             ; preds = %invoke.cont17, %invoke.cont14, %invoke.cont12, %invoke.cont10, %invoke.cont8, %sw.bb4, %invoke.cont, %sw.bb
  %2 = landingpad { ptr, i32 }
          cleanup
  br label %ehcleanup37

sw.bb4:                                           ; preds = %entry
  %vtable6 = load ptr, ptr %0, align 8
  %vfn7 = getelementptr inbounds i8, ptr %vtable6, i64 24
  %3 = load ptr, ptr %vfn7, align 8
  %call9 = invoke noundef ptr %3(ptr noundef nonnull align 8 dereferenceable(33178) %0)
          to label %invoke.cont8 unwind label %lpad

invoke.cont8:                                     ; preds = %sw.bb4
  %call11 = invoke noundef nonnull align 8 dereferenceable(32) ptr @_ZNSt7__cxx1112basic_stringIcSt11char_traitsIcESaIcEEaSEPKc(ptr noundef nonnull align 8 dereferenceable(32) %agg.result, ptr noundef %call9)
          to label %invoke.cont10 unwind label %lpad

invoke.cont10:                                    ; preds = %invoke.cont8
  %call13 = invoke noundef nonnull align 8 dereferenceable(32) ptr @_ZNSt7__cxx1112basic_stringIcSt11char_traitsIcESaIcEE5eraseEmm(ptr noundef nonnull align 8 dereferenceable(32) %agg.result, i64 noundef 0, i64 noundef 1)
          to label %invoke.cont12 unwind label %lpad

invoke.cont12:                                    ; preds = %invoke.cont10
  %call15 = invoke noundef nonnull align 8 dereferenceable(32) ptr @_ZNSt7__cxx1112basic_stringIcSt11char_traitsIcESaIcEEaSERKS4_(ptr noundef nonnull align 8 dereferenceable(32) %agg.result, ptr noundef nonnull align 8 dereferenceable(32) %call13)
          to label %invoke.cont14 unwind label %lpad

invoke.cont14:                                    ; preds = %invoke.cont12
  %call16 = tail call noundef i64 @_ZNKSt7__cxx1112basic_stringIcSt11char_traitsIcESaIcEE4sizeEv(ptr noundef nonnull align 8 dereferenceable(32) %agg.result) #19
  %sub = add i64 %call16, -1
  %call18 = invoke noundef nonnull align 8 dereferenceable(32) ptr @_ZNSt7__cxx1112basic_stringIcSt11char_traitsIcESaIcEE5eraseEmm(ptr noundef nonnull align 8 dereferenceable(32) %agg.result, i64 noundef %sub, i64 noundef 1)
          to label %invoke.cont17 unwind label %lpad

invoke.cont17:                                    ; preds = %invoke.cont14
  %call20 = invoke noundef nonnull align 8 dereferenceable(32) ptr @_ZNSt7__cxx1112basic_stringIcSt11char_traitsIcESaIcEEaSERKS4_(ptr noundef nonnull align 8 dereferenceable(32) %agg.result, ptr noundef nonnull align 8 dereferenceable(32) %call18)
          to label %nrvo.skipdtor unwind label %lpad

sw.bb21:                                          ; preds = %entry
  call void @_ZNSaIcEC1Ev(ptr noundef nonnull align 1 dereferenceable(1) %ref.tmp23) #19
  %call.i6 = invoke noundef ptr @_ZNSt7__cxx1112basic_stringIcSt11char_traitsIcESaIcEE13_M_local_dataEv(ptr noundef nonnull align 8 dereferenceable(32) %ref.tmp)
          to label %call.i.noexc unwind label %lpad24

call.i.noexc:                                     ; preds = %sw.bb21
  invoke void @_ZNSt7__cxx1112basic_stringIcSt11char_traitsIcESaIcEE12_Alloc_hiderC1EPcRKS3_(ptr noundef nonnull align 8 dereferenceable(8) %ref.tmp, ptr noundef %call.i6, ptr noundef nonnull align 1 dereferenceable(1) %ref.tmp23)
          to label %.noexc unwind label %lpad24

.noexc:                                           ; preds = %call.i.noexc
  invoke void @_ZNSt7__cxx1112basic_stringIcSt11char_traitsIcESaIcEE12_M_constructIPKcEEvT_S8_St20forward_iterator_tag(ptr noundef nonnull align 8 dereferenceable(32) %ref.tmp, ptr noundef nonnull @.str.36, ptr noundef nonnull getelementptr inbounds ([26 x i8], ptr @.str.36, i64 0, i64 25))
          to label %invoke.cont25 unwind label %lpad.i

lpad.i:                                           ; preds = %.noexc
  %4 = landingpad { ptr, i32 }
          cleanup
  call void @_ZNSaIcED2Ev(ptr noundef nonnull align 1 dereferenceable(1) %ref.tmp) #19
  br label %ehcleanup

invoke.cont25:                                    ; preds = %.noexc
  invoke void @_ZN4cvc56parser5Lexer10parseErrorERKNSt7__cxx1112basic_stringIcSt11char_traitsIcESaIcEEEb(ptr noundef nonnull align 8 dereferenceable(32892) %0, ptr noundef nonnull align 8 dereferenceable(32) %ref.tmp, i1 noundef zeroext true)
          to label %nrvo.skipdtor.sink.split unwind label %lpad26

lpad24:                                           ; preds = %call.i.noexc, %sw.bb21
  %5 = landingpad { ptr, i32 }
          cleanup
  br label %ehcleanup

lpad26:                                           ; preds = %invoke.cont25
  %6 = landingpad { ptr, i32 }
          cleanup
  call void @_ZNSt7__cxx1112basic_stringIcSt11char_traitsIcESaIcEED1Ev(ptr noundef nonnull align 8 dereferenceable(32) %ref.tmp) #19
  br label %ehcleanup

ehcleanup:                                        ; preds = %lpad24, %lpad.i, %lpad26
  %.pn = phi { ptr, i32 } [ %6, %lpad26 ], [ %5, %lpad24 ], [ %4, %lpad.i ]
  call void @_ZNSaIcED1Ev(ptr noundef nonnull align 1 dereferenceable(1) %ref.tmp23) #19
  br label %ehcleanup37

sw.default:                                       ; preds = %entry
  call void @_ZNSaIcEC1Ev(ptr noundef nonnull align 1 dereferenceable(1) %ref.tmp30) #19
  %call.i11 = invoke noundef ptr @_ZNSt7__cxx1112basic_stringIcSt11char_traitsIcESaIcEE13_M_local_dataEv(ptr noundef nonnull align 8 dereferenceable(32) %ref.tmp29)
          to label %call.i.noexc10 unwind label %lpad31

call.i.noexc10:                                   ; preds = %sw.default
  invoke void @_ZNSt7__cxx1112basic_stringIcSt11char_traitsIcESaIcEE12_Alloc_hiderC1EPcRKS3_(ptr noundef nonnull align 8 dereferenceable(8) %ref.tmp29, ptr noundef %call.i11, ptr noundef nonnull align 1 dereferenceable(1) %ref.tmp30)
          to label %.noexc12 unwind label %lpad31

.noexc12:                                         ; preds = %call.i.noexc10
  invoke void @_ZNSt7__cxx1112basic_stringIcSt11char_traitsIcESaIcEE12_M_constructIPKcEEvT_S8_St20forward_iterator_tag(ptr noundef nonnull align 8 dereferenceable(32) %ref.tmp29, ptr noundef nonnull @.str.36, ptr noundef nonnull getelementptr inbounds ([26 x i8], ptr @.str.36, i64 0, i64 25))
          to label %invoke.cont32 unwind label %lpad.i9

lpad.i9:                                          ; preds = %.noexc12
  %7 = landingpad { ptr, i32 }
          cleanup
  call void @_ZNSaIcED2Ev(ptr noundef nonnull align 1 dereferenceable(1) %ref.tmp29) #19
  br label %ehcleanup36

invoke.cont32:                                    ; preds = %.noexc12
  invoke void @_ZN4cvc56parser5Lexer20unexpectedTokenErrorENS0_5TokenERKNSt7__cxx1112basic_stringIcSt11char_traitsIcESaIcEEE(ptr noundef nonnull align 8 dereferenceable(32892) %0, i32 noundef %tok, ptr noundef nonnull align 8 dereferenceable(32) %ref.tmp29)
          to label %nrvo.skipdtor.sink.split unwind label %lpad33

lpad31:                                           ; preds = %call.i.noexc10, %sw.default
  %8 = landingpad { ptr, i32 }
          cleanup
  br label %ehcleanup36

lpad33:                                           ; preds = %invoke.cont32
  %9 = landingpad { ptr, i32 }
          cleanup
  call void @_ZNSt7__cxx1112basic_stringIcSt11char_traitsIcESaIcEED1Ev(ptr noundef nonnull align 8 dereferenceable(32) %ref.tmp29) #19
  br label %ehcleanup36

ehcleanup36:                                      ; preds = %lpad31, %lpad.i9, %lpad33
  %.pn3 = phi { ptr, i32 } [ %9, %lpad33 ], [ %8, %lpad31 ], [ %7, %lpad.i9 ]
  call void @_ZNSaIcED1Ev(ptr noundef nonnull align 1 dereferenceable(1) %ref.tmp30) #19
  br label %ehcleanup37

nrvo.skipdtor.sink.split:                         ; preds = %invoke.cont32, %invoke.cont25
  %ref.tmp.sink = phi ptr [ %ref.tmp, %invoke.cont25 ], [ %ref.tmp29, %invoke.cont32 ]
  %ref.tmp23.sink = phi ptr [ %ref.tmp23, %invoke.cont25 ], [ %ref.tmp30, %invoke.cont32 ]
  call void @_ZNSt7__cxx1112basic_stringIcSt11char_traitsIcESaIcEED1Ev(ptr noundef nonnull align 8 dereferenceable(32) %ref.tmp.sink) #19
  call void @_ZNSaIcED1Ev(ptr noundef nonnull align 1 dereferenceable(1) %ref.tmp23.sink) #19
  br label %nrvo.skipdtor

nrvo.skipdtor:                                    ; preds = %nrvo.skipdtor.sink.split, %invoke.cont, %invoke.cont17
  ret void

ehcleanup37:                                      ; preds = %ehcleanup36, %ehcleanup, %lpad
  %.pn3.pn = phi { ptr, i32 } [ %.pn3, %ehcleanup36 ], [ %.pn, %ehcleanup ], [ %2, %lpad ]
  call void @_ZNSt7__cxx1112basic_stringIcSt11char_traitsIcESaIcEED1Ev(ptr noundef nonnull align 8 dereferenceable(32) %agg.result) #19
  resume { ptr, i32 } %.pn3.pn
}